target datalayout = "e-m:e-p270:32:32-p271:32:32-p272:64:64-i64:64-i128:128-f80:128-n8:16:32:64-S128"
target triple = "x86_64-pc-linux-gnu"

%struct._priv_exr_context_t = type { i8, i8, i8, i8, i8, i8, i8, i8, %struct.exr_attr_string_t, %struct.exr_attr_string_t, ptr, ptr, ptr, ptr, ptr, ptr, ptr, ptr, i32, i32, i32, i32, i32, float, ptr, ptr, ptr, i64, ptr, ptr, i64, i32, i32, i32, i32, %struct._priv_exr_part_t, ptr, ptr, %struct.exr_attribute_list, %union.pthread_mutex_t, i8, i8, [2 x i8], i32 }
%struct.exr_attr_string_t = type { i32, i32, ptr }
%struct._priv_exr_part_t = type { i32, i32, %struct.exr_attribute_list, ptr, ptr, ptr, ptr, ptr, ptr, ptr, ptr, ptr, ptr, ptr, ptr, ptr, ptr, %struct.exr_attr_box2i_t, %struct.exr_attr_box2i_t, i32, i32, i32, float, i32, i32, ptr, ptr, ptr, ptr, i64, i16, i16, i32, i64, i64 }
%struct.exr_attr_box2i_t = type { %struct.exr_attr_v2i_t, %struct.exr_attr_v2i_t }
%struct.exr_attr_v2i_t = type { i32, i32 }
%struct.exr_attribute_list = type { i32, i32, ptr, ptr }
%union.pthread_mutex_t = type { %struct.__pthread_mutex_s }
%struct.__pthread_mutex_s = type { i32, i32, i32, i32, i32, i16, i16, %struct.__pthread_internal_list }
%struct.__pthread_internal_list = type { ptr, ptr }

@.str.17 = private unnamed_addr constant [45 x i8] c"read requested with no output offset pointer\00", align 1

; Function Attrs: nounwind uwtable
define internal i32 @dispatch_read(ptr noundef %0, ptr noundef %1, i64 noundef %2, ptr noundef %3, ptr noundef %4, i32 noundef %5) #0 {
  %7 = alloca i32, align 4
  %8 = alloca ptr, align 8
  %9 = alloca ptr, align 8
  %10 = alloca i64, align 8
  %11 = alloca ptr, align 8
  %12 = alloca ptr, align 8
  %13 = alloca i32, align 4
  %14 = alloca i64, align 8
  %15 = alloca i32, align 4
  %16 = alloca i32, align 4
  store ptr %0, ptr %8, align 8, !tbaa !12
  store ptr %1, ptr %9, align 8, !tbaa !45
  store i64 %2, ptr %10, align 8, !tbaa !46
  store ptr %3, ptr %11, align 8, !tbaa !47
  store ptr %4, ptr %12, align 8, !tbaa !47
  store i32 %5, ptr %13, align 4, !tbaa !10
  call void @llvm.lifetime.start.p0(i64 8, ptr %14) #9
  store i64 -1, ptr %14, align 8, !tbaa !46
  call void @llvm.lifetime.start.p0(i64 4, ptr %15) #9
  store i32 33, ptr %15, align 4, !tbaa !10
  %17 = load ptr, ptr %12, align 8, !tbaa !47
  %18 = icmp ne ptr %17, null
  br i1 %18, label %19, label %22

19:                                               ; preds = %6
  %20 = load i64, ptr %14, align 8, !tbaa !46
  %21 = load ptr, ptr %12, align 8, !tbaa !47
  store i64 %20, ptr %21, align 8, !tbaa !46
  br label %22

22:                                               ; preds = %19, %6
  %23 = load ptr, ptr %8, align 8, !tbaa !12
  %24 = icmp ne ptr %23, null
  br i1 %24, label %26, label %25

25:                                               ; preds = %22
  store i32 2, ptr %7, align 4
  store i32 1, ptr %16, align 4
  br label %90

26:                                               ; preds = %22
  %27 = load ptr, ptr %11, align 8, !tbaa !47
  %28 = icmp ne ptr %27, null
  br i1 %28, label %35, label %29

29:                                               ; preds = %26
  %30 = load ptr, ptr %8, align 8, !tbaa !12
  %31 = getelementptr inbounds nuw %struct._priv_exr_context_t, ptr %30, i32 0, i32 13
  %32 = load ptr, ptr %31, align 8, !tbaa !49
  %33 = load ptr, ptr %8, align 8, !tbaa !12
  %34 = call i32 %32(ptr noundef %33, i32 noundef 3, ptr noundef @.str.17)
  store i32 %34, ptr %7, align 4
  store i32 1, ptr %16, align 4
  br label %90

35:                                               ; preds = %26
  %36 = load ptr, ptr %8, align 8, !tbaa !12
  %37 = getelementptr inbounds nuw %struct._priv_exr_context_t, ptr %36, i32 0, i32 28
  %38 = load ptr, ptr %37, align 8, !tbaa !50
  %39 = icmp ne ptr %38, null
  br i1 %39, label %40, label %56

40:                                               ; preds = %35
  %41 = load ptr, ptr %8, align 8, !tbaa !12
  %42 = getelementptr inbounds nuw %struct._priv_exr_context_t, ptr %41, i32 0, i32 28
  %43 = load ptr, ptr %42, align 8, !tbaa !50
  %44 = load ptr, ptr %8, align 8, !tbaa !12
  %45 = load ptr, ptr %8, align 8, !tbaa !12
  %46 = getelementptr inbounds nuw %struct._priv_exr_context_t, ptr %45, i32 0, i32 25
  %47 = load ptr, ptr %46, align 8, !tbaa !51
  %48 = load ptr, ptr %9, align 8, !tbaa !45
  %49 = load i64, ptr %10, align 8, !tbaa !46
  %50 = load ptr, ptr %11, align 8, !tbaa !47
  %51 = load i64, ptr %50, align 8, !tbaa !46
  %52 = load ptr, ptr %8, align 8, !tbaa !12
  %53 = getelementptr inbounds nuw %struct._priv_exr_context_t, ptr %52, i32 0, i32 14
  %54 = load ptr, ptr %53, align 8, !tbaa !52
  %55 = call i64 %43(ptr noundef %44, ptr noundef %47, ptr noundef %48, i64 noundef %49, i64 noundef %51, ptr noundef %54)
  store i64 %55, ptr %14, align 8, !tbaa !46
  br label %62

56:                                               ; preds = %35
  %57 = load ptr, ptr %8, align 8, !tbaa !12
  %58 = getelementptr inbounds nuw %struct._priv_exr_context_t, ptr %57, i32 0, i32 12
  %59 = load ptr, ptr %58, align 8, !tbaa !53
  %60 = load ptr, ptr %8, align 8, !tbaa !12
  %61 = call i32 %59(ptr noundef %60, i32 noundef 7)
  store i32 %61, ptr %7, align 4
  store i32 1, ptr %16, align 4
  br label %90

62:                                               ; preds = %40
  %63 = load ptr, ptr %12, align 8, !tbaa !47
  %64 = icmp ne ptr %63, null
  br i1 %64, label %65, label %68

65:                                               ; preds = %62
  %66 = load i64, ptr %14, align 8, !tbaa !46
  %67 = load ptr, ptr %12, align 8, !tbaa !47
  store i64 %66, ptr %67, align 8, !tbaa !46
  br label %68

68:                                               ; preds = %65, %62
  %69 = load i64, ptr %14, align 8, !tbaa !46
  %70 = icmp sgt i64 %69, 0
  br i1 %70, label %71, label %76

71:                                               ; preds = %68
  %72 = load i64, ptr %14, align 8, !tbaa !46
  %73 = load ptr, ptr %11, align 8, !tbaa !47
  %74 = load i64, ptr %73, align 8, !tbaa !46
  %75 = add i64 %74, %72
  store i64 %75, ptr %73, align 8, !tbaa !46
  br label %76

76:                                               ; preds = %71, %68
  %77 = load i64, ptr %14, align 8, !tbaa !46
  %78 = load i64, ptr %10, align 8, !tbaa !46
  %79 = icmp eq i64 %77, %78
  br i1 %79, label %86, label %80

80:                                               ; preds = %76
  %81 = load i32, ptr %13, align 4, !tbaa !10
  %82 = icmp eq i32 %81, 1
  br i1 %82, label %83, label %87

83:                                               ; preds = %80
  %84 = load i64, ptr %14, align 8, !tbaa !46
  %85 = icmp sge i64 %84, 0
  br i1 %85, label %86, label %87

86:                                               ; preds = %83, %76
  store i32 0, ptr %15, align 4, !tbaa !10
  br label %88

87:                                               ; preds = %83, %80
  store i32 10, ptr %15, align 4, !tbaa !10
  br label %88

88:                                               ; preds = %87, %86
  %89 = load i32, ptr %15, align 4, !tbaa !10
  store i32 %89, ptr %7, align 4
  store i32 1, ptr %16, align 4
  br label %90

90:                                               ; preds = %88, %56, %29, %25
  call void @llvm.lifetime.end.p0(i64 4, ptr %15) #9
  call void @llvm.lifetime.end.p0(i64 8, ptr %14) #9
  %91 = load i32, ptr %7, align 4
  ret i32 %91
}