; Function Attrs: nounwind uwtable
define internal i32 @dispatch_read(ptr noundef %0, ptr noundef %1, i64 noundef %2, ptr noundef %3, ptr noundef writeonly %4, i32 noundef %5) #0 {
  %.not = icmp eq ptr %4, null
  br i1 %.not, label %8, label %7

7:                                                ; preds = %6
  store i64 -1, ptr %4, align 8, !tbaa !53
  br label %8

8:                                                ; preds = %7, %6
  %.not36 = icmp eq ptr %0, null
  br i1 %.not36, label %39, label %9

9:                                                ; preds = %8
  %.not37 = icmp eq ptr %3, null
  br i1 %.not37, label %10, label %14

10:                                               ; preds = %9
  %11 = getelementptr inbounds nuw i8, ptr %0, i64 64
  %12 = load ptr, ptr %11, align 8, !tbaa !54
  %13 = tail call i32 %12(ptr noundef nonnull %0, i32 noundef 3, ptr noundef nonnull @.str.17) #13
  br label %39

14:                                               ; preds = %9
  %15 = getelementptr inbounds nuw i8, ptr %0, i64 160
  %16 = load ptr, ptr %15, align 8, !tbaa !48
  %.not38 = icmp eq ptr %16, null
  br i1 %.not38, label %24, label %17

17:                                               ; preds = %14
  %18 = getelementptr inbounds nuw i8, ptr %0, i64 136
  %19 = load ptr, ptr %18, align 8, !tbaa !44
  %20 = load i64, ptr %3, align 8, !tbaa !53
  %21 = getelementptr inbounds nuw i8, ptr %0, i64 72
  %22 = load ptr, ptr %21, align 8, !tbaa !50
  %23 = tail call i64 %16(ptr noundef nonnull %0, ptr noundef %19, ptr noundef %1, i64 noundef %2, i64 noundef %20, ptr noundef %22) #13
  br i1 %.not, label %29, label %28

24:                                               ; preds = %14
  %25 = getelementptr inbounds nuw i8, ptr %0, i64 56
  %26 = load ptr, ptr %25, align 8, !tbaa !55
  %27 = tail call i32 %26(ptr noundef nonnull %0, i32 noundef 7) #13
  br label %39

28:                                               ; preds = %17
  store i64 %23, ptr %4, align 8, !tbaa !53
  br label %29

29:                                               ; preds = %28, %17
  %30 = icmp sgt i64 %23, 0
  br i1 %30, label %31, label %34

31:                                               ; preds = %29
  %32 = load i64, ptr %3, align 8, !tbaa !53
  %33 = add i64 %32, %23
  store i64 %33, ptr %3, align 8, !tbaa !53
  br label %34

34:                                               ; preds = %31, %29
  %35 = icmp eq i64 %23, %2
  br i1 %35, label %39, label %36

36:                                               ; preds = %34
  %37 = icmp eq i32 %5, 1
  %38 = icmp sgt i64 %23, -1
  %or.cond = select i1 %37, i1 %38, i1 false
  %spec.select = select i1 %or.cond, i32 0, i32 10
  br label %39

39:                                               ; preds = %36, %34, %8, %24, %10
  %.029 = phi i32 [ %27, %24 ], [ %13, %10 ], [ 2, %8 ], [ 0, %34 ], [ %spec.select, %36 ]
  ret i32 %.029
}